; Function Attrs: mustprogress nounwind uwtable
define dso_local void @_ZN9Stockfish6Thread9idle_loopEv(ptr noundef nonnull align 8 dereferenceable(136) %0) #3 align 2 {
  %2 = alloca %"class.std::unique_lock", align 8
  %3 = getelementptr inbounds i8, ptr %0, i64 112
  %4 = load i64, ptr %3, align 8
  %5 = icmp ugt i64 %4, 8
  br i1 %5, label %6, label %9

6:                                                ; preds = %1
  %7 = getelementptr inbounds i8, ptr %0, i64 104
  %8 = load i64, ptr %7, align 8
  tail call void @_ZN9Stockfish12WinProcGroup14bindThisThreadEm(i64 noundef %8) #14
  br label %9

9:                                                ; preds = %6, %1
  %10 = getelementptr inbounds i8, ptr %0, i64 16
  %11 = getelementptr inbounds i8, ptr %2, i64 8
  %12 = getelementptr inbounds i8, ptr %0, i64 121
  %13 = getelementptr inbounds i8, ptr %0, i64 56
  %14 = getelementptr inbounds i8, ptr %0, i64 120
  %15 = getelementptr inbounds i8, ptr %0, i64 8
  br label %16

16:                                               ; preds = %_ZNSt11unique_lockISt5mutexED2Ev.exit, %9
  store ptr %10, ptr %2, align 8
  store i8 0, ptr %11, align 8
  %17 = call noundef i32 @pthread_mutex_lock(ptr noundef nonnull %10) #14
  %.not.i.i.i = icmp eq i32 %17, 0
  br i1 %.not.i.i.i, label %_ZNSt11unique_lockISt5mutexEC2ERS0_.exit, label %18

18:                                               ; preds = %16
  call void @_ZSt20__throw_system_errori(i32 noundef %17) #15
  unreachable

_ZNSt11unique_lockISt5mutexEC2ERS0_.exit:         ; preds = %16
  store i8 1, ptr %11, align 8
  store i8 0, ptr %12, align 1
  call void @_ZNSt18condition_variable10notify_oneEv(ptr noundef nonnull align 8 dereferenceable(48) %13) #14
  %.val.val2.i = load i8, ptr %12, align 1
  %19 = and i8 %.val.val2.i, 1
  %.not3.i = icmp eq i8 %19, 0
  br i1 %.not3.i, label %.lr.ph.i, label %"_ZNSt18condition_variable4waitIZN9Stockfish6Thread9idle_loopEvE3$_0EEvRSt11unique_lockISt5mutexET_.exit"

.lr.ph.i:                                         ; preds = %_ZNSt11unique_lockISt5mutexEC2ERS0_.exit, %.lr.ph.i
  call void @_ZNSt18condition_variable4waitERSt11unique_lockISt5mutexE(ptr noundef nonnull align 8 dereferenceable(48) %13, ptr noundef nonnull align 8 dereferenceable(9) %2) #14
  %.val.val.i = load i8, ptr %12, align 1
  %20 = and i8 %.val.val.i, 1
  %.not.i = icmp eq i8 %20, 0
  br i1 %.not.i, label %.lr.ph.i, label %"_ZNSt18condition_variable4waitIZN9Stockfish6Thread9idle_loopEvE3$_0EEvRSt11unique_lockISt5mutexET_.exit", !llvm.loop !10

"_ZNSt18condition_variable4waitIZN9Stockfish6Thread9idle_loopEvE3$_0EEvRSt11unique_lockISt5mutexET_.exit": ; preds = %.lr.ph.i, %_ZNSt11unique_lockISt5mutexEC2ERS0_.exit
  %21 = load i8, ptr %14, align 8
  %22 = and i8 %21, 1
  %.not.not = icmp eq i8 %22, 0
  br i1 %.not.not, label %23, label %32

23:                                               ; preds = %"_ZNSt18condition_variable4waitIZN9Stockfish6Thread9idle_loopEvE3$_0EEvRSt11unique_lockISt5mutexET_.exit"
  %24 = load i8, ptr %11, align 8
  %25 = and i8 %24, 1
  %.not.i1 = icmp eq i8 %25, 0
  br i1 %.not.i1, label %26, label %27

26:                                               ; preds = %23
  call void @_ZSt20__throw_system_errori(i32 noundef 1) #15
  unreachable

27:                                               ; preds = %23
  %28 = load ptr, ptr %2, align 8
  %.not1.i = icmp eq ptr %28, null
  br i1 %.not1.i, label %_ZNSt11unique_lockISt5mutexE6unlockEv.exit, label %29

29:                                               ; preds = %27
  %30 = call noundef i32 @pthread_mutex_unlock(ptr noundef nonnull %28) #14
  store i8 0, ptr %11, align 8
  br label %_ZNSt11unique_lockISt5mutexE6unlockEv.exit

_ZNSt11unique_lockISt5mutexE6unlockEv.exit:       ; preds = %27, %29
  %31 = load ptr, ptr %15, align 8
  call void @_ZN9Stockfish6Search6Worker15start_searchingEv(ptr noundef nonnull align 64 dereferenceable(9583776) %31) #14
  br label %32

32:                                               ; preds = %"_ZNSt18condition_variable4waitIZN9Stockfish6Thread9idle_loopEvE3$_0EEvRSt11unique_lockISt5mutexET_.exit", %_ZNSt11unique_lockISt5mutexE6unlockEv.exit
  %33 = load i8, ptr %11, align 8
  %34 = and i8 %33, 1
  %.not.i2 = icmp eq i8 %34, 0
  br i1 %.not.i2, label %_ZNSt11unique_lockISt5mutexED2Ev.exit, label %35

35:                                               ; preds = %32
  %36 = load ptr, ptr %2, align 8
  %.not1.i.i = icmp eq ptr %36, null
  br i1 %.not1.i.i, label %_ZNSt11unique_lockISt5mutexED2Ev.exit, label %37

37:                                               ; preds = %35
  %38 = call noundef i32 @pthread_mutex_unlock(ptr noundef nonnull %36) #14
  store i8 0, ptr %11, align 8
  br label %_ZNSt11unique_lockISt5mutexED2Ev.exit

_ZNSt11unique_lockISt5mutexED2Ev.exit:            ; preds = %32, %35, %37
  br i1 %.not.not, label %16, label %39

39:                                               ; preds = %_ZNSt11unique_lockISt5mutexED2Ev.exit
  ret void
}